
generated/rv32um-rem:     file format elf32-littleriscv


Disassembly of section .text.init:

00000000 <_start>:
   0:	00000093          	li	ra,0
   4:	00000113          	li	sp,0
   8:	00000193          	li	gp,0
   c:	00000213          	li	tp,0
  10:	00000293          	li	t0,0
  14:	00000313          	li	t1,0
  18:	00000393          	li	t2,0
  1c:	00000413          	li	s0,0
  20:	00000493          	li	s1,0
  24:	00000513          	li	a0,0
  28:	00000593          	li	a1,0
  2c:	00000613          	li	a2,0
  30:	00000693          	li	a3,0
  34:	00000713          	li	a4,0
  38:	00000793          	li	a5,0
  3c:	00000813          	li	a6,0
  40:	00000893          	li	a7,0
  44:	00000913          	li	s2,0
  48:	00000993          	li	s3,0
  4c:	00000a13          	li	s4,0
  50:	00000a93          	li	s5,0
  54:	00000b13          	li	s6,0
  58:	00000b93          	li	s7,0
  5c:	00000c13          	li	s8,0
  60:	00000c93          	li	s9,0
  64:	00000d13          	li	s10,0
  68:	00000d93          	li	s11,0
  6c:	00000e13          	li	t3,0
  70:	00000e93          	li	t4,0
  74:	00000f13          	li	t5,0
  78:	00000f93          	li	t6,0

0000007c <test_2>:
  7c:	01400093          	li	ra,20
  80:	00600113          	li	sp,6
  84:	0220e733          	rem	a4,ra,sp
  88:	00200393          	li	t2,2
  8c:	00200193          	li	gp,2
  90:	0c771463          	bne	a4,t2,158 <fail>

00000094 <test_3>:
  94:	fec00093          	li	ra,-20
  98:	00600113          	li	sp,6
  9c:	0220e733          	rem	a4,ra,sp
  a0:	ffe00393          	li	t2,-2
  a4:	00300193          	li	gp,3
  a8:	0a771863          	bne	a4,t2,158 <fail>

000000ac <test_4>:
  ac:	01400093          	li	ra,20
  b0:	ffa00113          	li	sp,-6
  b4:	0220e733          	rem	a4,ra,sp
  b8:	00200393          	li	t2,2
  bc:	00400193          	li	gp,4
  c0:	08771c63          	bne	a4,t2,158 <fail>

000000c4 <test_5>:
  c4:	fec00093          	li	ra,-20
  c8:	ffa00113          	li	sp,-6
  cc:	0220e733          	rem	a4,ra,sp
  d0:	ffe00393          	li	t2,-2
  d4:	00500193          	li	gp,5
  d8:	08771063          	bne	a4,t2,158 <fail>

000000dc <test_6>:
  dc:	800000b7          	lui	ra,0x80000
  e0:	00100113          	li	sp,1
  e4:	0220e733          	rem	a4,ra,sp
  e8:	00000393          	li	t2,0
  ec:	00600193          	li	gp,6
  f0:	06771463          	bne	a4,t2,158 <fail>

000000f4 <test_7>:
  f4:	800000b7          	lui	ra,0x80000
  f8:	fff00113          	li	sp,-1
  fc:	0220e733          	rem	a4,ra,sp
 100:	00000393          	li	t2,0
 104:	00700193          	li	gp,7
 108:	04771863          	bne	a4,t2,158 <fail>

0000010c <test_8>:
 10c:	800000b7          	lui	ra,0x80000
 110:	00000113          	li	sp,0
 114:	0220e733          	rem	a4,ra,sp
 118:	800003b7          	lui	t2,0x80000
 11c:	00800193          	li	gp,8
 120:	02771c63          	bne	a4,t2,158 <fail>

00000124 <test_9>:
 124:	00100093          	li	ra,1
 128:	00000113          	li	sp,0
 12c:	0220e733          	rem	a4,ra,sp
 130:	00100393          	li	t2,1
 134:	00900193          	li	gp,9
 138:	02771063          	bne	a4,t2,158 <fail>

0000013c <test_10>:
 13c:	00000093          	li	ra,0
 140:	00000113          	li	sp,0
 144:	0220e733          	rem	a4,ra,sp
 148:	00000393          	li	t2,0
 14c:	00a00193          	li	gp,10
 150:	00771463          	bne	a4,t2,158 <fail>
 154:	00301a63          	bne	zero,gp,168 <pass>

00000158 <fail>:
 158:	00f00093          	li	ra,15
 15c:	00f00113          	li	sp,15
 160:	00f00193          	li	gp,15

00000164 <fail_loop>:
 164:	0000006f          	j	164 <fail_loop>

00000168 <pass>:
 168:	00100093          	li	ra,1
 16c:	00200113          	li	sp,2
 170:	00300193          	li	gp,3

00000174 <pass_loop>:
 174:	0000006f          	j	174 <pass_loop>
 178:	c0001073          	unimp
	...
