
generated/rv32si-csr:     file format elf32-littleriscv


Disassembly of section .text.init:

20000000 <_start>:
20000000:	00000093          	li	ra,0
20000004:	00000113          	li	sp,0
20000008:	00000193          	li	gp,0
2000000c:	00000213          	li	tp,0
20000010:	00000293          	li	t0,0
20000014:	00000313          	li	t1,0
20000018:	00000393          	li	t2,0
2000001c:	00000413          	li	s0,0
20000020:	00000493          	li	s1,0
20000024:	00000513          	li	a0,0
20000028:	00000593          	li	a1,0
2000002c:	00000613          	li	a2,0
20000030:	00000693          	li	a3,0
20000034:	00000713          	li	a4,0
20000038:	00000793          	li	a5,0
2000003c:	00000813          	li	a6,0
20000040:	00000893          	li	a7,0
20000044:	00000913          	li	s2,0
20000048:	00000993          	li	s3,0
2000004c:	00000a13          	li	s4,0
20000050:	00000a93          	li	s5,0
20000054:	00000b13          	li	s6,0
20000058:	00000b93          	li	s7,0
2000005c:	00000c13          	li	s8,0
20000060:	00000c93          	li	s9,0
20000064:	00000d13          	li	s10,0
20000068:	00000d93          	li	s11,0
2000006c:	00000e13          	li	t3,0
20000070:	00000e93          	li	t4,0
20000074:	00000f13          	li	t5,0
20000078:	00000f93          	li	t6,0

2000007c <test_20>:
2000007c:	34001073          	csrw	mscratch,zero
20000080:	34002573          	csrr	a0,mscratch
20000084:	00000393          	li	t2,0
20000088:	01400193          	li	gp,20
2000008c:	18751c63          	bne	a0,t2,20000224 <fail>

20000090 <test_21>:
20000090:	34005573          	csrrwi	a0,mscratch,0
20000094:	3407d573          	csrrwi	a0,mscratch,15
20000098:	00000393          	li	t2,0
2000009c:	01500193          	li	gp,21
200000a0:	18751263          	bne	a0,t2,20000224 <fail>

200000a4 <test_22>:
200000a4:	34086073          	csrsi	mscratch,16
200000a8:	34002573          	csrr	a0,mscratch
200000ac:	01f00393          	li	t2,31
200000b0:	01600193          	li	gp,22
200000b4:	16751863          	bne	a0,t2,20000224 <fail>
200000b8:	3401d073          	csrwi	mscratch,3

200000bc <test_2>:
200000bc:	34002573          	csrr	a0,mscratch
200000c0:	00300393          	li	t2,3
200000c4:	00200193          	li	gp,2
200000c8:	14751e63          	bne	a0,t2,20000224 <fail>

200000cc <test_3>:
200000cc:	3400f5f3          	csrrci	a1,mscratch,1
200000d0:	00300393          	li	t2,3
200000d4:	00300193          	li	gp,3
200000d8:	14759663          	bne	a1,t2,20000224 <fail>

200000dc <test_4>:
200000dc:	34026673          	csrrsi	a2,mscratch,4
200000e0:	00200393          	li	t2,2
200000e4:	00400193          	li	gp,4
200000e8:	12761e63          	bne	a2,t2,20000224 <fail>

200000ec <test_5>:
200000ec:	340156f3          	csrrwi	a3,mscratch,2
200000f0:	00600393          	li	t2,6
200000f4:	00500193          	li	gp,5
200000f8:	12769663          	bne	a3,t2,20000224 <fail>

200000fc <test_6>:
200000fc:	0bad2537          	lui	a0,0xbad2
20000100:	dea50513          	addi	a0,a0,-534 # bad1dea <_start-0x1452e216>
20000104:	340515f3          	csrrw	a1,mscratch,a0
20000108:	00200393          	li	t2,2
2000010c:	00600193          	li	gp,6
20000110:	10759a63          	bne	a1,t2,20000224 <fail>

20000114 <test_7>:
20000114:	00002537          	lui	a0,0x2
20000118:	dea50513          	addi	a0,a0,-534 # 1dea <_start-0x1fffe216>
2000011c:	340535f3          	csrrc	a1,mscratch,a0
20000120:	0bad23b7          	lui	t2,0xbad2
20000124:	dea38393          	addi	t2,t2,-534 # bad1dea <_start-0x1452e216>
20000128:	00700193          	li	gp,7
2000012c:	0e759c63          	bne	a1,t2,20000224 <fail>

20000130 <test_8>:
20000130:	0000c537          	lui	a0,0xc
20000134:	eef50513          	addi	a0,a0,-273 # beef <_start-0x1fff4111>
20000138:	340525f3          	csrrs	a1,mscratch,a0
2000013c:	0bad03b7          	lui	t2,0xbad0
20000140:	00800193          	li	gp,8
20000144:	0e759063          	bne	a1,t2,20000224 <fail>

20000148 <test_9>:
20000148:	0bad2537          	lui	a0,0xbad2
2000014c:	dea50513          	addi	a0,a0,-534 # bad1dea <_start-0x1452e216>
20000150:	34051573          	csrrw	a0,mscratch,a0
20000154:	0badc3b7          	lui	t2,0xbadc
20000158:	eef38393          	addi	t2,t2,-273 # badbeef <_start-0x14524111>
2000015c:	00900193          	li	gp,9
20000160:	0c751263          	bne	a0,t2,20000224 <fail>

20000164 <test_10>:
20000164:	00002537          	lui	a0,0x2
20000168:	dea50513          	addi	a0,a0,-534 # 1dea <_start-0x1fffe216>
2000016c:	34053573          	csrrc	a0,mscratch,a0
20000170:	0bad23b7          	lui	t2,0xbad2
20000174:	dea38393          	addi	t2,t2,-534 # bad1dea <_start-0x1452e216>
20000178:	00a00193          	li	gp,10
2000017c:	0a751463          	bne	a0,t2,20000224 <fail>

20000180 <test_11>:
20000180:	0000c537          	lui	a0,0xc
20000184:	eef50513          	addi	a0,a0,-273 # beef <_start-0x1fff4111>
20000188:	34052573          	csrrs	a0,mscratch,a0
2000018c:	0bad03b7          	lui	t2,0xbad0
20000190:	00b00193          	li	gp,11
20000194:	08751863          	bne	a0,t2,20000224 <fail>

20000198 <test_12>:
20000198:	34002573          	csrr	a0,mscratch
2000019c:	0badc3b7          	lui	t2,0xbadc
200001a0:	eef38393          	addi	t2,t2,-273 # badbeef <_start-0x14524111>
200001a4:	00c00193          	li	gp,12
200001a8:	06751e63          	bne	a0,t2,20000224 <fail>
200001ac:	30102573          	csrr	a0,misa
200001b0:	02057513          	andi	a0,a0,32
200001b4:	00050c63          	beqz	a0,200001cc <test_13+0xc>
200001b8:	000065b7          	lui	a1,0x6
200001bc:	3005a073          	csrs	mstatus,a1

200001c0 <test_13>:
200001c0:	00100393          	li	t2,1
200001c4:	00d00193          	li	gp,13
200001c8:	04701e63          	bne	zero,t2,20000224 <fail>
200001cc:	30102573          	csrr	a0,misa
200001d0:	01455513          	srli	a0,a0,0x14
200001d4:	00157513          	andi	a0,a0,1
200001d8:	04050463          	beqz	a0,20000220 <finish>
200001dc:	000022b7          	lui	t0,0x2
200001e0:	80028293          	addi	t0,t0,-2048 # 1800 <_start-0x1fffe800>
200001e4:	3002b073          	csrc	mstatus,t0
200001e8:	00000297          	auipc	t0,0x0
200001ec:	01028293          	addi	t0,t0,16 # 200001f8 <test_14>
200001f0:	34129073          	csrw	mepc,t0
200001f4:	30200073          	mret

200001f8 <test_14>:
200001f8:	0ff00513          	li	a0,255
200001fc:	c0001573          	csrrw	a0,cycle,zero
20000200:	0ff00393          	li	t2,255
20000204:	00e00193          	li	gp,14
20000208:	00751e63          	bne	a0,t2,20000224 <fail>

2000020c <test_15>:
2000020c:	0ff00513          	li	a0,255
20000210:	30002573          	csrr	a0,mstatus
20000214:	0ff00393          	li	t2,255
20000218:	00f00193          	li	gp,15
2000021c:	00751463          	bne	a0,t2,20000224 <fail>

20000220 <finish>:
20000220:	00301a63          	bne	zero,gp,20000234 <pass>

20000224 <fail>:
20000224:	00f00093          	li	ra,15
20000228:	00f00113          	li	sp,15
2000022c:	00f00193          	li	gp,15

20000230 <fail_loop>:
20000230:	0000006f          	j	20000230 <fail_loop>

20000234 <pass>:
20000234:	00100093          	li	ra,1
20000238:	00200113          	li	sp,2
2000023c:	00300193          	li	gp,3

20000240 <pass_loop>:
20000240:	0000006f          	j	20000240 <pass_loop>

20000244 <mtvec_handler>:
20000244:	00c00293          	li	t0,12
20000248:	0051e663          	bltu	gp,t0,20000254 <mtvec_handler+0x10>
2000024c:	00e00293          	li	t0,14
20000250:	0032f863          	bgeu	t0,gp,20000260 <privileged>
20000254:	342022f3          	csrr	t0,mcause
20000258:	00800313          	li	t1,8
2000025c:	fc6294e3          	bne	t0,t1,20000224 <fail>

20000260 <privileged>:
20000260:	342022f3          	csrr	t0,mcause
20000264:	00200313          	li	t1,2
20000268:	fa629ee3          	bne	t0,t1,20000224 <fail>
2000026c:	341022f3          	csrr	t0,mepc
20000270:	00428293          	addi	t0,t0,4
20000274:	34129073          	csrw	mepc,t0
20000278:	30200073          	mret
2000027c:	c0001073          	unimp
20000280:	0000                	unimp
	...

Disassembly of section .data:

80000000 <fsw_data>:
80000000:	0001                	nop
	...
