
generated/rv32ui-andi:     file format elf32-littleriscv


Disassembly of section .text.init:

20000000 <_start>:
20000000:	00000093          	li	ra,0
20000004:	00000113          	li	sp,0
20000008:	00000193          	li	gp,0
2000000c:	00000213          	li	tp,0
20000010:	00000293          	li	t0,0
20000014:	00000313          	li	t1,0
20000018:	00000393          	li	t2,0
2000001c:	00000413          	li	s0,0
20000020:	00000493          	li	s1,0
20000024:	00000513          	li	a0,0
20000028:	00000593          	li	a1,0
2000002c:	00000613          	li	a2,0
20000030:	00000693          	li	a3,0
20000034:	00000713          	li	a4,0
20000038:	00000793          	li	a5,0
2000003c:	00000813          	li	a6,0
20000040:	00000893          	li	a7,0
20000044:	00000913          	li	s2,0
20000048:	00000993          	li	s3,0
2000004c:	00000a13          	li	s4,0
20000050:	00000a93          	li	s5,0
20000054:	00000b13          	li	s6,0
20000058:	00000b93          	li	s7,0
2000005c:	00000c13          	li	s8,0
20000060:	00000c93          	li	s9,0
20000064:	00000d13          	li	s10,0
20000068:	00000d93          	li	s11,0
2000006c:	00000e13          	li	t3,0
20000070:	00000e93          	li	t4,0
20000074:	00000f13          	li	t5,0
20000078:	00000f93          	li	t6,0

2000007c <test_2>:
2000007c:	ff0100b7          	lui	ra,0xff010
20000080:	f0008093          	addi	ra,ra,-256 # ff00ff00 <_end+0x7f00ff00>
20000084:	f0f0f713          	andi	a4,ra,-241
20000088:	ff0103b7          	lui	t2,0xff010
2000008c:	f0038393          	addi	t2,t2,-256 # ff00ff00 <_end+0x7f00ff00>
20000090:	00200193          	li	gp,2
20000094:	1a771463          	bne	a4,t2,2000023c <fail>

20000098 <test_3>:
20000098:	0ff010b7          	lui	ra,0xff01
2000009c:	ff008093          	addi	ra,ra,-16 # ff00ff0 <_start-0x100ff010>
200000a0:	0f00f713          	andi	a4,ra,240
200000a4:	0f000393          	li	t2,240
200000a8:	00300193          	li	gp,3
200000ac:	18771863          	bne	a4,t2,2000023c <fail>

200000b0 <test_4>:
200000b0:	00ff00b7          	lui	ra,0xff0
200000b4:	0ff08093          	addi	ra,ra,255 # ff00ff <_start-0x1f00ff01>
200000b8:	70f0f713          	andi	a4,ra,1807
200000bc:	00f00393          	li	t2,15
200000c0:	00400193          	li	gp,4
200000c4:	16771c63          	bne	a4,t2,2000023c <fail>

200000c8 <test_5>:
200000c8:	f00ff0b7          	lui	ra,0xf00ff
200000cc:	00f08093          	addi	ra,ra,15 # f00ff00f <_end+0x700ff00f>
200000d0:	0f00f713          	andi	a4,ra,240
200000d4:	00000393          	li	t2,0
200000d8:	00500193          	li	gp,5
200000dc:	16771063          	bne	a4,t2,2000023c <fail>

200000e0 <test_6>:
200000e0:	ff0100b7          	lui	ra,0xff010
200000e4:	f0008093          	addi	ra,ra,-256 # ff00ff00 <_end+0x7f00ff00>
200000e8:	0f00f093          	andi	ra,ra,240
200000ec:	00000393          	li	t2,0
200000f0:	00600193          	li	gp,6
200000f4:	14709463          	bne	ra,t2,2000023c <fail>

200000f8 <test_7>:
200000f8:	00000213          	li	tp,0
200000fc:	0ff010b7          	lui	ra,0xff01
20000100:	ff008093          	addi	ra,ra,-16 # ff00ff0 <_start-0x100ff010>
20000104:	70f0f713          	andi	a4,ra,1807
20000108:	00070313          	mv	t1,a4
2000010c:	00120213          	addi	tp,tp,1 # 1 <_start-0x1fffffff>
20000110:	00200293          	li	t0,2
20000114:	fe5214e3          	bne	tp,t0,200000fc <test_7+0x4>
20000118:	70000393          	li	t2,1792
2000011c:	00700193          	li	gp,7
20000120:	10731e63          	bne	t1,t2,2000023c <fail>

20000124 <test_8>:
20000124:	00000213          	li	tp,0
20000128:	00ff00b7          	lui	ra,0xff0
2000012c:	0ff08093          	addi	ra,ra,255 # ff00ff <_start-0x1f00ff01>
20000130:	0f00f713          	andi	a4,ra,240
20000134:	00000013          	nop
20000138:	00070313          	mv	t1,a4
2000013c:	00120213          	addi	tp,tp,1 # 1 <_start-0x1fffffff>
20000140:	00200293          	li	t0,2
20000144:	fe5212e3          	bne	tp,t0,20000128 <test_8+0x4>
20000148:	0f000393          	li	t2,240
2000014c:	00800193          	li	gp,8
20000150:	0e731663          	bne	t1,t2,2000023c <fail>

20000154 <test_9>:
20000154:	00000213          	li	tp,0
20000158:	f00ff0b7          	lui	ra,0xf00ff
2000015c:	00f08093          	addi	ra,ra,15 # f00ff00f <_end+0x700ff00f>
20000160:	f0f0f713          	andi	a4,ra,-241
20000164:	00000013          	nop
20000168:	00000013          	nop
2000016c:	00070313          	mv	t1,a4
20000170:	00120213          	addi	tp,tp,1 # 1 <_start-0x1fffffff>
20000174:	00200293          	li	t0,2
20000178:	fe5210e3          	bne	tp,t0,20000158 <test_9+0x4>
2000017c:	f00ff3b7          	lui	t2,0xf00ff
20000180:	00f38393          	addi	t2,t2,15 # f00ff00f <_end+0x700ff00f>
20000184:	00900193          	li	gp,9
20000188:	0a731a63          	bne	t1,t2,2000023c <fail>

2000018c <test_10>:
2000018c:	00000213          	li	tp,0
20000190:	0ff010b7          	lui	ra,0xff01
20000194:	ff008093          	addi	ra,ra,-16 # ff00ff0 <_start-0x100ff010>
20000198:	70f0f713          	andi	a4,ra,1807
2000019c:	00120213          	addi	tp,tp,1 # 1 <_start-0x1fffffff>
200001a0:	00200293          	li	t0,2
200001a4:	fe5216e3          	bne	tp,t0,20000190 <test_10+0x4>
200001a8:	70000393          	li	t2,1792
200001ac:	00a00193          	li	gp,10
200001b0:	08771663          	bne	a4,t2,2000023c <fail>

200001b4 <test_11>:
200001b4:	00000213          	li	tp,0
200001b8:	00ff00b7          	lui	ra,0xff0
200001bc:	0ff08093          	addi	ra,ra,255 # ff00ff <_start-0x1f00ff01>
200001c0:	00000013          	nop
200001c4:	0f00f713          	andi	a4,ra,240
200001c8:	00120213          	addi	tp,tp,1 # 1 <_start-0x1fffffff>
200001cc:	00200293          	li	t0,2
200001d0:	fe5214e3          	bne	tp,t0,200001b8 <test_11+0x4>
200001d4:	0f000393          	li	t2,240
200001d8:	00b00193          	li	gp,11
200001dc:	06771063          	bne	a4,t2,2000023c <fail>

200001e0 <test_12>:
200001e0:	00000213          	li	tp,0
200001e4:	f00ff0b7          	lui	ra,0xf00ff
200001e8:	00f08093          	addi	ra,ra,15 # f00ff00f <_end+0x700ff00f>
200001ec:	00000013          	nop
200001f0:	00000013          	nop
200001f4:	70f0f713          	andi	a4,ra,1807
200001f8:	00120213          	addi	tp,tp,1 # 1 <_start-0x1fffffff>
200001fc:	00200293          	li	t0,2
20000200:	fe5212e3          	bne	tp,t0,200001e4 <test_12+0x4>
20000204:	00f00393          	li	t2,15
20000208:	00c00193          	li	gp,12
2000020c:	02771863          	bne	a4,t2,2000023c <fail>

20000210 <test_13>:
20000210:	0f007093          	andi	ra,zero,240
20000214:	00000393          	li	t2,0
20000218:	00d00193          	li	gp,13
2000021c:	02709063          	bne	ra,t2,2000023c <fail>

20000220 <test_14>:
20000220:	00ff00b7          	lui	ra,0xff0
20000224:	0ff08093          	addi	ra,ra,255 # ff00ff <_start-0x1f00ff01>
20000228:	70f0f013          	andi	zero,ra,1807
2000022c:	00000393          	li	t2,0
20000230:	00e00193          	li	gp,14
20000234:	00701463          	bne	zero,t2,2000023c <fail>
20000238:	00301a63          	bne	zero,gp,2000024c <pass>

2000023c <fail>:
2000023c:	00f00093          	li	ra,15
20000240:	00f00113          	li	sp,15
20000244:	00f00193          	li	gp,15

20000248 <fail_loop>:
20000248:	0000006f          	j	20000248 <fail_loop>

2000024c <pass>:
2000024c:	00100093          	li	ra,1
20000250:	00200113          	li	sp,2
20000254:	00300193          	li	gp,3

20000258 <pass_loop>:
20000258:	0000006f          	j	20000258 <pass_loop>
2000025c:	c0001073          	unimp
	...
