
generated/rv32ui-and:     file format elf32-littleriscv


Disassembly of section .text.init:

20000000 <_start>:
20000000:	00000093          	li	ra,0
20000004:	00000113          	li	sp,0
20000008:	00000193          	li	gp,0
2000000c:	00000213          	li	tp,0
20000010:	00000293          	li	t0,0
20000014:	00000313          	li	t1,0
20000018:	00000393          	li	t2,0
2000001c:	00000413          	li	s0,0
20000020:	00000493          	li	s1,0
20000024:	00000513          	li	a0,0
20000028:	00000593          	li	a1,0
2000002c:	00000613          	li	a2,0
20000030:	00000693          	li	a3,0
20000034:	00000713          	li	a4,0
20000038:	00000793          	li	a5,0
2000003c:	00000813          	li	a6,0
20000040:	00000893          	li	a7,0
20000044:	00000913          	li	s2,0
20000048:	00000993          	li	s3,0
2000004c:	00000a13          	li	s4,0
20000050:	00000a93          	li	s5,0
20000054:	00000b13          	li	s6,0
20000058:	00000b93          	li	s7,0
2000005c:	00000c13          	li	s8,0
20000060:	00000c93          	li	s9,0
20000064:	00000d13          	li	s10,0
20000068:	00000d93          	li	s11,0
2000006c:	00000e13          	li	t3,0
20000070:	00000e93          	li	t4,0
20000074:	00000f13          	li	t5,0
20000078:	00000f93          	li	t6,0

2000007c <test_2>:
2000007c:	ff0100b7          	lui	ra,0xff010
20000080:	f0008093          	addi	ra,ra,-256 # ff00ff00 <_end+0x7f00ff00>
20000084:	0f0f1137          	lui	sp,0xf0f1
20000088:	f0f10113          	addi	sp,sp,-241 # f0f0f0f <_start-0x10f0f0f1>
2000008c:	0020f733          	and	a4,ra,sp
20000090:	0f0013b7          	lui	t2,0xf001
20000094:	f0038393          	addi	t2,t2,-256 # f000f00 <_start-0x10fff100>
20000098:	00200193          	li	gp,2
2000009c:	48771c63          	bne	a4,t2,20000534 <fail>

200000a0 <test_3>:
200000a0:	0ff010b7          	lui	ra,0xff01
200000a4:	ff008093          	addi	ra,ra,-16 # ff00ff0 <_start-0x100ff010>
200000a8:	f0f0f137          	lui	sp,0xf0f0f
200000ac:	0f010113          	addi	sp,sp,240 # f0f0f0f0 <_end+0x70f0f0f0>
200000b0:	0020f733          	and	a4,ra,sp
200000b4:	00f003b7          	lui	t2,0xf00
200000b8:	0f038393          	addi	t2,t2,240 # f000f0 <_start-0x1f0fff10>
200000bc:	00300193          	li	gp,3
200000c0:	46771a63          	bne	a4,t2,20000534 <fail>

200000c4 <test_4>:
200000c4:	00ff00b7          	lui	ra,0xff0
200000c8:	0ff08093          	addi	ra,ra,255 # ff00ff <_start-0x1f00ff01>
200000cc:	0f0f1137          	lui	sp,0xf0f1
200000d0:	f0f10113          	addi	sp,sp,-241 # f0f0f0f <_start-0x10f0f0f1>
200000d4:	0020f733          	and	a4,ra,sp
200000d8:	000f03b7          	lui	t2,0xf0
200000dc:	00f38393          	addi	t2,t2,15 # f000f <_start-0x1ff0fff1>
200000e0:	00400193          	li	gp,4
200000e4:	44771863          	bne	a4,t2,20000534 <fail>

200000e8 <test_5>:
200000e8:	f00ff0b7          	lui	ra,0xf00ff
200000ec:	00f08093          	addi	ra,ra,15 # f00ff00f <_end+0x700ff00f>
200000f0:	f0f0f137          	lui	sp,0xf0f0f
200000f4:	0f010113          	addi	sp,sp,240 # f0f0f0f0 <_end+0x70f0f0f0>
200000f8:	0020f733          	and	a4,ra,sp
200000fc:	f000f3b7          	lui	t2,0xf000f
20000100:	00500193          	li	gp,5
20000104:	42771863          	bne	a4,t2,20000534 <fail>

20000108 <test_6>:
20000108:	ff0100b7          	lui	ra,0xff010
2000010c:	f0008093          	addi	ra,ra,-256 # ff00ff00 <_end+0x7f00ff00>
20000110:	0f0f1137          	lui	sp,0xf0f1
20000114:	f0f10113          	addi	sp,sp,-241 # f0f0f0f <_start-0x10f0f0f1>
20000118:	0020f0b3          	and	ra,ra,sp
2000011c:	0f0013b7          	lui	t2,0xf001
20000120:	f0038393          	addi	t2,t2,-256 # f000f00 <_start-0x10fff100>
20000124:	00600193          	li	gp,6
20000128:	40709663          	bne	ra,t2,20000534 <fail>

2000012c <test_7>:
2000012c:	0ff010b7          	lui	ra,0xff01
20000130:	ff008093          	addi	ra,ra,-16 # ff00ff0 <_start-0x100ff010>
20000134:	f0f0f137          	lui	sp,0xf0f0f
20000138:	0f010113          	addi	sp,sp,240 # f0f0f0f0 <_end+0x70f0f0f0>
2000013c:	0020f133          	and	sp,ra,sp
20000140:	00f003b7          	lui	t2,0xf00
20000144:	0f038393          	addi	t2,t2,240 # f000f0 <_start-0x1f0fff10>
20000148:	00700193          	li	gp,7
2000014c:	3e711463          	bne	sp,t2,20000534 <fail>

20000150 <test_8>:
20000150:	ff0100b7          	lui	ra,0xff010
20000154:	f0008093          	addi	ra,ra,-256 # ff00ff00 <_end+0x7f00ff00>
20000158:	0010f0b3          	and	ra,ra,ra
2000015c:	ff0103b7          	lui	t2,0xff010
20000160:	f0038393          	addi	t2,t2,-256 # ff00ff00 <_end+0x7f00ff00>
20000164:	00800193          	li	gp,8
20000168:	3c709663          	bne	ra,t2,20000534 <fail>

2000016c <test_9>:
2000016c:	00000213          	li	tp,0
20000170:	ff0100b7          	lui	ra,0xff010
20000174:	f0008093          	addi	ra,ra,-256 # ff00ff00 <_end+0x7f00ff00>
20000178:	0f0f1137          	lui	sp,0xf0f1
2000017c:	f0f10113          	addi	sp,sp,-241 # f0f0f0f <_start-0x10f0f0f1>
20000180:	0020f733          	and	a4,ra,sp
20000184:	00070313          	mv	t1,a4
20000188:	00120213          	addi	tp,tp,1 # 1 <_start-0x1fffffff>
2000018c:	00200293          	li	t0,2
20000190:	fe5210e3          	bne	tp,t0,20000170 <test_9+0x4>
20000194:	0f0013b7          	lui	t2,0xf001
20000198:	f0038393          	addi	t2,t2,-256 # f000f00 <_start-0x10fff100>
2000019c:	00900193          	li	gp,9
200001a0:	38731a63          	bne	t1,t2,20000534 <fail>

200001a4 <test_10>:
200001a4:	00000213          	li	tp,0
200001a8:	0ff010b7          	lui	ra,0xff01
200001ac:	ff008093          	addi	ra,ra,-16 # ff00ff0 <_start-0x100ff010>
200001b0:	f0f0f137          	lui	sp,0xf0f0f
200001b4:	0f010113          	addi	sp,sp,240 # f0f0f0f0 <_end+0x70f0f0f0>
200001b8:	0020f733          	and	a4,ra,sp
200001bc:	00000013          	nop
200001c0:	00070313          	mv	t1,a4
200001c4:	00120213          	addi	tp,tp,1 # 1 <_start-0x1fffffff>
200001c8:	00200293          	li	t0,2
200001cc:	fc521ee3          	bne	tp,t0,200001a8 <test_10+0x4>
200001d0:	00f003b7          	lui	t2,0xf00
200001d4:	0f038393          	addi	t2,t2,240 # f000f0 <_start-0x1f0fff10>
200001d8:	00a00193          	li	gp,10
200001dc:	34731c63          	bne	t1,t2,20000534 <fail>

200001e0 <test_11>:
200001e0:	00000213          	li	tp,0
200001e4:	00ff00b7          	lui	ra,0xff0
200001e8:	0ff08093          	addi	ra,ra,255 # ff00ff <_start-0x1f00ff01>
200001ec:	0f0f1137          	lui	sp,0xf0f1
200001f0:	f0f10113          	addi	sp,sp,-241 # f0f0f0f <_start-0x10f0f0f1>
200001f4:	0020f733          	and	a4,ra,sp
200001f8:	00000013          	nop
200001fc:	00000013          	nop
20000200:	00070313          	mv	t1,a4
20000204:	00120213          	addi	tp,tp,1 # 1 <_start-0x1fffffff>
20000208:	00200293          	li	t0,2
2000020c:	fc521ce3          	bne	tp,t0,200001e4 <test_11+0x4>
20000210:	000f03b7          	lui	t2,0xf0
20000214:	00f38393          	addi	t2,t2,15 # f000f <_start-0x1ff0fff1>
20000218:	00b00193          	li	gp,11
2000021c:	30731c63          	bne	t1,t2,20000534 <fail>

20000220 <test_12>:
20000220:	00000213          	li	tp,0
20000224:	ff0100b7          	lui	ra,0xff010
20000228:	f0008093          	addi	ra,ra,-256 # ff00ff00 <_end+0x7f00ff00>
2000022c:	0f0f1137          	lui	sp,0xf0f1
20000230:	f0f10113          	addi	sp,sp,-241 # f0f0f0f <_start-0x10f0f0f1>
20000234:	0020f733          	and	a4,ra,sp
20000238:	00120213          	addi	tp,tp,1 # 1 <_start-0x1fffffff>
2000023c:	00200293          	li	t0,2
20000240:	fe5212e3          	bne	tp,t0,20000224 <test_12+0x4>
20000244:	0f0013b7          	lui	t2,0xf001
20000248:	f0038393          	addi	t2,t2,-256 # f000f00 <_start-0x10fff100>
2000024c:	00c00193          	li	gp,12
20000250:	2e771263          	bne	a4,t2,20000534 <fail>

20000254 <test_13>:
20000254:	00000213          	li	tp,0
20000258:	0ff010b7          	lui	ra,0xff01
2000025c:	ff008093          	addi	ra,ra,-16 # ff00ff0 <_start-0x100ff010>
20000260:	f0f0f137          	lui	sp,0xf0f0f
20000264:	0f010113          	addi	sp,sp,240 # f0f0f0f0 <_end+0x70f0f0f0>
20000268:	00000013          	nop
2000026c:	0020f733          	and	a4,ra,sp
20000270:	00120213          	addi	tp,tp,1 # 1 <_start-0x1fffffff>
20000274:	00200293          	li	t0,2
20000278:	fe5210e3          	bne	tp,t0,20000258 <test_13+0x4>
2000027c:	00f003b7          	lui	t2,0xf00
20000280:	0f038393          	addi	t2,t2,240 # f000f0 <_start-0x1f0fff10>
20000284:	00d00193          	li	gp,13
20000288:	2a771663          	bne	a4,t2,20000534 <fail>

2000028c <test_14>:
2000028c:	00000213          	li	tp,0
20000290:	00ff00b7          	lui	ra,0xff0
20000294:	0ff08093          	addi	ra,ra,255 # ff00ff <_start-0x1f00ff01>
20000298:	0f0f1137          	lui	sp,0xf0f1
2000029c:	f0f10113          	addi	sp,sp,-241 # f0f0f0f <_start-0x10f0f0f1>
200002a0:	00000013          	nop
200002a4:	00000013          	nop
200002a8:	0020f733          	and	a4,ra,sp
200002ac:	00120213          	addi	tp,tp,1 # 1 <_start-0x1fffffff>
200002b0:	00200293          	li	t0,2
200002b4:	fc521ee3          	bne	tp,t0,20000290 <test_14+0x4>
200002b8:	000f03b7          	lui	t2,0xf0
200002bc:	00f38393          	addi	t2,t2,15 # f000f <_start-0x1ff0fff1>
200002c0:	00e00193          	li	gp,14
200002c4:	26771863          	bne	a4,t2,20000534 <fail>

200002c8 <test_15>:
200002c8:	00000213          	li	tp,0
200002cc:	ff0100b7          	lui	ra,0xff010
200002d0:	f0008093          	addi	ra,ra,-256 # ff00ff00 <_end+0x7f00ff00>
200002d4:	00000013          	nop
200002d8:	0f0f1137          	lui	sp,0xf0f1
200002dc:	f0f10113          	addi	sp,sp,-241 # f0f0f0f <_start-0x10f0f0f1>
200002e0:	0020f733          	and	a4,ra,sp
200002e4:	00120213          	addi	tp,tp,1 # 1 <_start-0x1fffffff>
200002e8:	00200293          	li	t0,2
200002ec:	fe5210e3          	bne	tp,t0,200002cc <test_15+0x4>
200002f0:	0f0013b7          	lui	t2,0xf001
200002f4:	f0038393          	addi	t2,t2,-256 # f000f00 <_start-0x10fff100>
200002f8:	00f00193          	li	gp,15
200002fc:	22771c63          	bne	a4,t2,20000534 <fail>

20000300 <test_16>:
20000300:	00000213          	li	tp,0
20000304:	0ff010b7          	lui	ra,0xff01
20000308:	ff008093          	addi	ra,ra,-16 # ff00ff0 <_start-0x100ff010>
2000030c:	00000013          	nop
20000310:	f0f0f137          	lui	sp,0xf0f0f
20000314:	0f010113          	addi	sp,sp,240 # f0f0f0f0 <_end+0x70f0f0f0>
20000318:	00000013          	nop
2000031c:	0020f733          	and	a4,ra,sp
20000320:	00120213          	addi	tp,tp,1 # 1 <_start-0x1fffffff>
20000324:	00200293          	li	t0,2
20000328:	fc521ee3          	bne	tp,t0,20000304 <test_16+0x4>
2000032c:	00f003b7          	lui	t2,0xf00
20000330:	0f038393          	addi	t2,t2,240 # f000f0 <_start-0x1f0fff10>
20000334:	01000193          	li	gp,16
20000338:	1e771e63          	bne	a4,t2,20000534 <fail>

2000033c <test_17>:
2000033c:	00000213          	li	tp,0
20000340:	00ff00b7          	lui	ra,0xff0
20000344:	0ff08093          	addi	ra,ra,255 # ff00ff <_start-0x1f00ff01>
20000348:	00000013          	nop
2000034c:	00000013          	nop
20000350:	0f0f1137          	lui	sp,0xf0f1
20000354:	f0f10113          	addi	sp,sp,-241 # f0f0f0f <_start-0x10f0f0f1>
20000358:	0020f733          	and	a4,ra,sp
2000035c:	00120213          	addi	tp,tp,1 # 1 <_start-0x1fffffff>
20000360:	00200293          	li	t0,2
20000364:	fc521ee3          	bne	tp,t0,20000340 <test_17+0x4>
20000368:	000f03b7          	lui	t2,0xf0
2000036c:	00f38393          	addi	t2,t2,15 # f000f <_start-0x1ff0fff1>
20000370:	01100193          	li	gp,17
20000374:	1c771063          	bne	a4,t2,20000534 <fail>

20000378 <test_18>:
20000378:	00000213          	li	tp,0
2000037c:	0f0f1137          	lui	sp,0xf0f1
20000380:	f0f10113          	addi	sp,sp,-241 # f0f0f0f <_start-0x10f0f0f1>
20000384:	ff0100b7          	lui	ra,0xff010
20000388:	f0008093          	addi	ra,ra,-256 # ff00ff00 <_end+0x7f00ff00>
2000038c:	0020f733          	and	a4,ra,sp
20000390:	00120213          	addi	tp,tp,1 # 1 <_start-0x1fffffff>
20000394:	00200293          	li	t0,2
20000398:	fe5212e3          	bne	tp,t0,2000037c <test_18+0x4>
2000039c:	0f0013b7          	lui	t2,0xf001
200003a0:	f0038393          	addi	t2,t2,-256 # f000f00 <_start-0x10fff100>
200003a4:	01200193          	li	gp,18
200003a8:	18771663          	bne	a4,t2,20000534 <fail>

200003ac <test_19>:
200003ac:	00000213          	li	tp,0
200003b0:	f0f0f137          	lui	sp,0xf0f0f
200003b4:	0f010113          	addi	sp,sp,240 # f0f0f0f0 <_end+0x70f0f0f0>
200003b8:	0ff010b7          	lui	ra,0xff01
200003bc:	ff008093          	addi	ra,ra,-16 # ff00ff0 <_start-0x100ff010>
200003c0:	00000013          	nop
200003c4:	0020f733          	and	a4,ra,sp
200003c8:	00120213          	addi	tp,tp,1 # 1 <_start-0x1fffffff>
200003cc:	00200293          	li	t0,2
200003d0:	fe5210e3          	bne	tp,t0,200003b0 <test_19+0x4>
200003d4:	00f003b7          	lui	t2,0xf00
200003d8:	0f038393          	addi	t2,t2,240 # f000f0 <_start-0x1f0fff10>
200003dc:	01300193          	li	gp,19
200003e0:	14771a63          	bne	a4,t2,20000534 <fail>

200003e4 <test_20>:
200003e4:	00000213          	li	tp,0
200003e8:	0f0f1137          	lui	sp,0xf0f1
200003ec:	f0f10113          	addi	sp,sp,-241 # f0f0f0f <_start-0x10f0f0f1>
200003f0:	00ff00b7          	lui	ra,0xff0
200003f4:	0ff08093          	addi	ra,ra,255 # ff00ff <_start-0x1f00ff01>
200003f8:	00000013          	nop
200003fc:	00000013          	nop
20000400:	0020f733          	and	a4,ra,sp
20000404:	00120213          	addi	tp,tp,1 # 1 <_start-0x1fffffff>
20000408:	00200293          	li	t0,2
2000040c:	fc521ee3          	bne	tp,t0,200003e8 <test_20+0x4>
20000410:	000f03b7          	lui	t2,0xf0
20000414:	00f38393          	addi	t2,t2,15 # f000f <_start-0x1ff0fff1>
20000418:	01400193          	li	gp,20
2000041c:	10771c63          	bne	a4,t2,20000534 <fail>

20000420 <test_21>:
20000420:	00000213          	li	tp,0
20000424:	0f0f1137          	lui	sp,0xf0f1
20000428:	f0f10113          	addi	sp,sp,-241 # f0f0f0f <_start-0x10f0f0f1>
2000042c:	00000013          	nop
20000430:	ff0100b7          	lui	ra,0xff010
20000434:	f0008093          	addi	ra,ra,-256 # ff00ff00 <_end+0x7f00ff00>
20000438:	0020f733          	and	a4,ra,sp
2000043c:	00120213          	addi	tp,tp,1 # 1 <_start-0x1fffffff>
20000440:	00200293          	li	t0,2
20000444:	fe5210e3          	bne	tp,t0,20000424 <test_21+0x4>
20000448:	0f0013b7          	lui	t2,0xf001
2000044c:	f0038393          	addi	t2,t2,-256 # f000f00 <_start-0x10fff100>
20000450:	01500193          	li	gp,21
20000454:	0e771063          	bne	a4,t2,20000534 <fail>

20000458 <test_22>:
20000458:	00000213          	li	tp,0
2000045c:	f0f0f137          	lui	sp,0xf0f0f
20000460:	0f010113          	addi	sp,sp,240 # f0f0f0f0 <_end+0x70f0f0f0>
20000464:	00000013          	nop
20000468:	0ff010b7          	lui	ra,0xff01
2000046c:	ff008093          	addi	ra,ra,-16 # ff00ff0 <_start-0x100ff010>
20000470:	00000013          	nop
20000474:	0020f733          	and	a4,ra,sp
20000478:	00120213          	addi	tp,tp,1 # 1 <_start-0x1fffffff>
2000047c:	00200293          	li	t0,2
20000480:	fc521ee3          	bne	tp,t0,2000045c <test_22+0x4>
20000484:	00f003b7          	lui	t2,0xf00
20000488:	0f038393          	addi	t2,t2,240 # f000f0 <_start-0x1f0fff10>
2000048c:	01600193          	li	gp,22
20000490:	0a771263          	bne	a4,t2,20000534 <fail>

20000494 <test_23>:
20000494:	00000213          	li	tp,0
20000498:	0f0f1137          	lui	sp,0xf0f1
2000049c:	f0f10113          	addi	sp,sp,-241 # f0f0f0f <_start-0x10f0f0f1>
200004a0:	00000013          	nop
200004a4:	00000013          	nop
200004a8:	00ff00b7          	lui	ra,0xff0
200004ac:	0ff08093          	addi	ra,ra,255 # ff00ff <_start-0x1f00ff01>
200004b0:	0020f733          	and	a4,ra,sp
200004b4:	00120213          	addi	tp,tp,1 # 1 <_start-0x1fffffff>
200004b8:	00200293          	li	t0,2
200004bc:	fc521ee3          	bne	tp,t0,20000498 <test_23+0x4>
200004c0:	000f03b7          	lui	t2,0xf0
200004c4:	00f38393          	addi	t2,t2,15 # f000f <_start-0x1ff0fff1>
200004c8:	01700193          	li	gp,23
200004cc:	06771463          	bne	a4,t2,20000534 <fail>

200004d0 <test_24>:
200004d0:	ff0100b7          	lui	ra,0xff010
200004d4:	f0008093          	addi	ra,ra,-256 # ff00ff00 <_end+0x7f00ff00>
200004d8:	00107133          	and	sp,zero,ra
200004dc:	00000393          	li	t2,0
200004e0:	01800193          	li	gp,24
200004e4:	04711863          	bne	sp,t2,20000534 <fail>

200004e8 <test_25>:
200004e8:	00ff00b7          	lui	ra,0xff0
200004ec:	0ff08093          	addi	ra,ra,255 # ff00ff <_start-0x1f00ff01>
200004f0:	0000f133          	and	sp,ra,zero
200004f4:	00000393          	li	t2,0
200004f8:	01900193          	li	gp,25
200004fc:	02711c63          	bne	sp,t2,20000534 <fail>

20000500 <test_26>:
20000500:	000070b3          	and	ra,zero,zero
20000504:	00000393          	li	t2,0
20000508:	01a00193          	li	gp,26
2000050c:	02709463          	bne	ra,t2,20000534 <fail>

20000510 <test_27>:
20000510:	111110b7          	lui	ra,0x11111
20000514:	11108093          	addi	ra,ra,273 # 11111111 <_start-0xeeeeeef>
20000518:	22222137          	lui	sp,0x22222
2000051c:	22210113          	addi	sp,sp,546 # 22222222 <pass_loop+0x2221cd2>
20000520:	0020f033          	and	zero,ra,sp
20000524:	00000393          	li	t2,0
20000528:	01b00193          	li	gp,27
2000052c:	00701463          	bne	zero,t2,20000534 <fail>
20000530:	00301a63          	bne	zero,gp,20000544 <pass>

20000534 <fail>:
20000534:	00f00093          	li	ra,15
20000538:	00f00113          	li	sp,15
2000053c:	00f00193          	li	gp,15

20000540 <fail_loop>:
20000540:	0000006f          	j	20000540 <fail_loop>

20000544 <pass>:
20000544:	00100093          	li	ra,1
20000548:	00200113          	li	sp,2
2000054c:	00300193          	li	gp,3

20000550 <pass_loop>:
20000550:	0000006f          	j	20000550 <pass_loop>
20000554:	c0001073          	unimp
	...
